target datalayout = "e-m:e-p270:32:32-p271:32:32-p272:64:64-i64:64-i128:128-f80:128-n8:16:32:64-S128"
target triple = "x86_64-pc-linux-gnu"

%struct.lua_State = type { i8, i8, i8, i8, i8, i8, i8, ptr, ptr, ptr, ptr, ptr, ptr, ptr, ptr, i32, i32, i16, i16, i32, ptr, ptr, ptr, ptr, ptr }
%struct.global_State = type { %struct.stringtable, ptr, ptr, i8, i8, ptr, ptr, ptr, i64, i64, i32, i32, i32, [40 x ptr], [40 x ptr], ptr, ptr, ptr, [256 x i64], ptr, %struct.UpVal, [11 x ptr], [11 x ptr], [21 x ptr], %struct.lua_TValue, %struct.lua_TValue, i32, ptr, i64, [4 x i64], %struct.lua_Callbacks, %struct.lua_ExecutionCallbacks, [128 x ptr], [128 x ptr], [128 x ptr], %struct.GCStats }
%struct.stringtable = type { ptr, i32, i32 }
%struct.UpVal = type { i8, i8, i8, i8, ptr, %union.anon }
%union.anon = type { %struct.anon }
%struct.anon = type { ptr, ptr, ptr }
%struct.lua_TValue = type { %union.Value, [1 x i32], i32 }
%union.Value = type { ptr }
%struct.lua_Callbacks = type { ptr, ptr, ptr, ptr, ptr, ptr, ptr, ptr, ptr }
%struct.lua_ExecutionCallbacks = type { ptr, ptr, ptr, ptr, ptr, ptr, ptr }
%struct.GCStats = type { [32 x i32], i32, i32, i64, i64, i64, double, double, double }
%struct.TString = type { i8, i8, i8, i16, ptr, i32, i32, [1 x i8] }
%struct.GCheader = type { i8, i8, i8 }

; Function Attrs: mustprogress uwtable
define internal noundef ptr @_ZL7newlstrP9lua_StatePKcmj(ptr noundef %0, ptr noundef %1, i64 noundef %2, i32 noundef %3) #2 {
  %5 = alloca ptr, align 8
  %6 = alloca ptr, align 8
  %7 = alloca i64, align 8
  %8 = alloca i32, align 4
  %9 = alloca ptr, align 8
  %10 = alloca ptr, align 8
  store ptr %0, ptr %5, align 8
  store ptr %1, ptr %6, align 8
  store i64 %2, ptr %7, align 8
  store i32 %3, ptr %8, align 4
  %11 = load i64, ptr %7, align 8
  %12 = icmp ugt i64 %11, 1073741824
  br i1 %12, label %13, label %15

13:                                               ; preds = %4
  %14 = load ptr, ptr %5, align 8
  call void @_Z11luaM_toobigP9lua_State(ptr noundef %14) #6
  unreachable

15:                                               ; preds = %4
  %16 = load ptr, ptr %5, align 8
  %17 = load i64, ptr %7, align 8
  %18 = add i64 24, %17
  %19 = add i64 %18, 1
  %20 = load ptr, ptr %5, align 8
  %21 = getelementptr inbounds %struct.lua_State, ptr %20, i32 0, i32 4
  %22 = load i8, ptr %21, align 4
  %23 = call noundef ptr @_Z12luaM_newgco_P9lua_Statemh(ptr noundef %16, i64 noundef %19, i8 noundef zeroext %22)
  store ptr %23, ptr %9, align 8
  %24 = load ptr, ptr %5, align 8
  %25 = getelementptr inbounds %struct.lua_State, ptr %24, i32 0, i32 9
  %26 = load ptr, ptr %25, align 8
  %27 = getelementptr inbounds %struct.global_State, ptr %26, i32 0, i32 3
  %28 = load i8, ptr %27, align 8
  %29 = zext i8 %28 to i32
  %30 = and i32 %29, 3
  %31 = trunc i32 %30 to i8
  %32 = load ptr, ptr %9, align 8
  %33 = getelementptr inbounds %struct.TString, ptr %32, i32 0, i32 1
  store i8 %31, ptr %33, align 1
  %34 = load ptr, ptr %9, align 8
  %35 = getelementptr inbounds %struct.TString, ptr %34, i32 0, i32 0
  store i8 5, ptr %35, align 8
  %36 = load ptr, ptr %5, align 8
  %37 = getelementptr inbounds %struct.lua_State, ptr %36, i32 0, i32 4
  %38 = load i8, ptr %37, align 4
  %39 = load ptr, ptr %9, align 8
  %40 = getelementptr inbounds %struct.TString, ptr %39, i32 0, i32 2
  store i8 %38, ptr %40, align 2
  %41 = load ptr, ptr %9, align 8
  %42 = getelementptr inbounds %struct.TString, ptr %41, i32 0, i32 3
  store i16 -32768, ptr %42, align 4
  %43 = load i32, ptr %8, align 4
  %44 = load ptr, ptr %9, align 8
  %45 = getelementptr inbounds %struct.TString, ptr %44, i32 0, i32 5
  store i32 %43, ptr %45, align 8
  %46 = load i64, ptr %7, align 8
  %47 = trunc i64 %46 to i32
  %48 = load ptr, ptr %9, align 8
  %49 = getelementptr inbounds %struct.TString, ptr %48, i32 0, i32 6
  store i32 %47, ptr %49, align 4
  %50 = load ptr, ptr %9, align 8
  %51 = getelementptr inbounds %struct.TString, ptr %50, i32 0, i32 7
  %52 = getelementptr inbounds [1 x i8], ptr %51, i64 0, i64 0
  %53 = load ptr, ptr %6, align 8
  %54 = load i64, ptr %7, align 8
  call void @llvm.memcpy.p0.p0.i64(ptr align 8 %52, ptr align 1 %53, i64 %54, i1 false)
  %55 = load ptr, ptr %9, align 8
  %56 = getelementptr inbounds %struct.TString, ptr %55, i32 0, i32 7
  %57 = load i64, ptr %7, align 8
  %58 = getelementptr inbounds [1 x i8], ptr %56, i64 0, i64 %57
  store i8 0, ptr %58, align 1
  %59 = load ptr, ptr %5, align 8
  %60 = getelementptr inbounds %struct.lua_State, ptr %59, i32 0, i32 9
  %61 = load ptr, ptr %60, align 8
  %62 = getelementptr inbounds %struct.global_State, ptr %61, i32 0, i32 0
  store ptr %62, ptr %10, align 8
  %63 = load i32, ptr %8, align 4
  %64 = load ptr, ptr %10, align 8
  %65 = getelementptr inbounds %struct.stringtable, ptr %64, i32 0, i32 2
  %66 = load i32, ptr %65, align 4
  %67 = sub nsw i32 %66, 1
  %68 = and i32 %63, %67
  store i32 %68, ptr %8, align 4
  %69 = load ptr, ptr %10, align 8
  %70 = getelementptr inbounds %struct.stringtable, ptr %69, i32 0, i32 0
  %71 = load ptr, ptr %70, align 8
  %72 = load i32, ptr %8, align 4
  %73 = zext i32 %72 to i64
  %74 = getelementptr inbounds ptr, ptr %71, i64 %73
  %75 = load ptr, ptr %74, align 8
  %76 = load ptr, ptr %9, align 8
  %77 = getelementptr inbounds %struct.TString, ptr %76, i32 0, i32 4
  store ptr %75, ptr %77, align 8
  %78 = load ptr, ptr %9, align 8
  %79 = load ptr, ptr %10, align 8
  %80 = getelementptr inbounds %struct.stringtable, ptr %79, i32 0, i32 0
  %81 = load ptr, ptr %80, align 8
  %82 = load i32, ptr %8, align 4
  %83 = zext i32 %82 to i64
  %84 = getelementptr inbounds ptr, ptr %81, i64 %83
  store ptr %78, ptr %84, align 8
  %85 = load ptr, ptr %10, align 8
  %86 = getelementptr inbounds %struct.stringtable, ptr %85, i32 0, i32 1
  %87 = load i32, ptr %86, align 8
  %88 = add i32 %87, 1
  store i32 %88, ptr %86, align 8
  %89 = load ptr, ptr %10, align 8
  %90 = getelementptr inbounds %struct.stringtable, ptr %89, i32 0, i32 1
  %91 = load i32, ptr %90, align 8
  %92 = load ptr, ptr %10, align 8
  %93 = getelementptr inbounds %struct.stringtable, ptr %92, i32 0, i32 2
  %94 = load i32, ptr %93, align 4
  %95 = icmp ugt i32 %91, %94
  br i1 %95, label %96, label %107

96:                                               ; preds = %15
  %97 = load ptr, ptr %10, align 8
  %98 = getelementptr inbounds %struct.stringtable, ptr %97, i32 0, i32 2
  %99 = load i32, ptr %98, align 4
  %100 = icmp sle i32 %99, 1073741823
  br i1 %100, label %101, label %107

101:                                              ; preds = %96
  %102 = load ptr, ptr %5, align 8
  %103 = load ptr, ptr %10, align 8
  %104 = getelementptr inbounds %struct.stringtable, ptr %103, i32 0, i32 2
  %105 = load i32, ptr %104, align 4
  %106 = mul nsw i32 %105, 2
  call void @_Z11luaS_resizeP9lua_Statei(ptr noundef %102, i32 noundef %106)
  br label %107

107:                                              ; preds = %101, %96, %15
  %108 = load ptr, ptr %9, align 8
  ret ptr %108
}

; Function Attrs: mustprogress nounwind uwtable
define hidden noundef i32 @_Z9luaS_hashPKcm(ptr noundef %0, i64 noundef %1) #0 {
  %3 = alloca ptr, align 8
  %4 = alloca i64, align 8
  %5 = alloca i32, align 4
  %6 = alloca i32, align 4
  %7 = alloca i32, align 4
  %8 = alloca [3 x i32], align 4
  %9 = alloca i64, align 8
  store ptr %0, ptr %3, align 8
  store i64 %1, ptr %4, align 8
  store i32 0, ptr %5, align 4
  store i32 0, ptr %6, align 4
  %10 = load i64, ptr %4, align 8
  %11 = trunc i64 %10 to i32
  store i32 %11, ptr %7, align 4
  br label %12

12:                                               ; preds = %15, %2
  %13 = load i64, ptr %4, align 8
  %14 = icmp uge i64 %13, 32
  br i1 %14, label %15, label %64

15:                                               ; preds = %12
  %16 = getelementptr inbounds [3 x i32], ptr %8, i64 0, i64 0
  %17 = load ptr, ptr %3, align 8
  call void @llvm.memcpy.p0.p0.i64(ptr align 4 %16, ptr align 1 %17, i64 12, i1 false)
  %18 = getelementptr inbounds [3 x i32], ptr %8, i64 0, i64 0
  %19 = load i32, ptr %18, align 4
  %20 = load i32, ptr %5, align 4
  %21 = add i32 %20, %19
  store i32 %21, ptr %5, align 4
  %22 = getelementptr inbounds [3 x i32], ptr %8, i64 0, i64 1
  %23 = load i32, ptr %22, align 4
  %24 = load i32, ptr %6, align 4
  %25 = add i32 %24, %23
  store i32 %25, ptr %6, align 4
  %26 = getelementptr inbounds [3 x i32], ptr %8, i64 0, i64 2
  %27 = load i32, ptr %26, align 4
  %28 = load i32, ptr %7, align 4
  %29 = add i32 %28, %27
  store i32 %29, ptr %7, align 4
  %30 = load i32, ptr %7, align 4
  %31 = load i32, ptr %5, align 4
  %32 = xor i32 %31, %30
  store i32 %32, ptr %5, align 4
  %33 = load i32, ptr %7, align 4
  %34 = lshr i32 %33, 14
  %35 = load i32, ptr %7, align 4
  %36 = shl i32 %35, 18
  %37 = or i32 %34, %36
  %38 = load i32, ptr %5, align 4
  %39 = sub i32 %38, %37
  store i32 %39, ptr %5, align 4
  %40 = load i32, ptr %5, align 4
  %41 = load i32, ptr %6, align 4
  %42 = xor i32 %41, %40
  store i32 %42, ptr %6, align 4
  %43 = load i32, ptr %5, align 4
  %44 = lshr i32 %43, 11
  %45 = load i32, ptr %5, align 4
  %46 = shl i32 %45, 21
  %47 = or i32 %44, %46
  %48 = load i32, ptr %6, align 4
  %49 = sub i32 %48, %47
  store i32 %49, ptr %6, align 4
  %50 = load i32, ptr %6, align 4
  %51 = load i32, ptr %7, align 4
  %52 = xor i32 %51, %50
  store i32 %52, ptr %7, align 4
  %53 = load i32, ptr %6, align 4
  %54 = lshr i32 %53, 25
  %55 = load i32, ptr %6, align 4
  %56 = shl i32 %55, 7
  %57 = or i32 %54, %56
  %58 = load i32, ptr %7, align 4
  %59 = sub i32 %58, %57
  store i32 %59, ptr %7, align 4
  %60 = load ptr, ptr %3, align 8
  %61 = getelementptr inbounds i8, ptr %60, i64 12
  store ptr %61, ptr %3, align 8
  %62 = load i64, ptr %4, align 8
  %63 = sub i64 %62, 12
  store i64 %63, ptr %4, align 8
  br label %12, !llvm.loop !5

64:                                               ; preds = %12
  %65 = load i64, ptr %4, align 8
  store i64 %65, ptr %9, align 8
  br label %66

66:                                               ; preds = %84, %64
  %67 = load i64, ptr %9, align 8
  %68 = icmp ugt i64 %67, 0
  br i1 %68, label %69, label %87

69:                                               ; preds = %66
  %70 = load i32, ptr %7, align 4
  %71 = shl i32 %70, 5
  %72 = load i32, ptr %7, align 4
  %73 = lshr i32 %72, 2
  %74 = add i32 %71, %73
  %75 = load ptr, ptr %3, align 8
  %76 = load i64, ptr %9, align 8
  %77 = sub i64 %76, 1
  %78 = getelementptr inbounds i8, ptr %75, i64 %77
  %79 = load i8, ptr %78, align 1
  %80 = zext i8 %79 to i32
  %81 = add i32 %74, %80
  %82 = load i32, ptr %7, align 4
  %83 = xor i32 %82, %81
  store i32 %83, ptr %7, align 4
  br label %84

84:                                               ; preds = %69
  %85 = load i64, ptr %9, align 8
  %86 = add i64 %85, -1
  store i64 %86, ptr %9, align 8
  br label %66, !llvm.loop !7

87:                                               ; preds = %66
  %88 = load i32, ptr %7, align 4
  ret i32 %88
}

; Function Attrs: mustprogress uwtable
define hidden noundef ptr @_Z12luaS_newlstrP9lua_StatePKcm(ptr noundef %0, ptr noundef %1, i64 noundef %2) #2 {
  %4 = alloca ptr, align 8
  %5 = alloca ptr, align 8
  %6 = alloca ptr, align 8
  %7 = alloca i64, align 8
  %8 = alloca i32, align 4
  %9 = alloca ptr, align 8
  store ptr %0, ptr %5, align 8
  store ptr %1, ptr %6, align 8
  store i64 %2, ptr %7, align 8
  %10 = load ptr, ptr %6, align 8
  %11 = load i64, ptr %7, align 8
  %12 = call noundef i32 @_Z9luaS_hashPKcm(ptr noundef %10, i64 noundef %11)
  store i32 %12, ptr %8, align 4
  %13 = load ptr, ptr %5, align 8
  %14 = getelementptr inbounds %struct.lua_State, ptr %13, i32 0, i32 9
  %15 = load ptr, ptr %14, align 8
  %16 = getelementptr inbounds %struct.global_State, ptr %15, i32 0, i32 0
  %17 = getelementptr inbounds %struct.stringtable, ptr %16, i32 0, i32 0
  %18 = load ptr, ptr %17, align 8
  %19 = load i32, ptr %8, align 4
  %20 = load ptr, ptr %5, align 8
  %21 = getelementptr inbounds %struct.lua_State, ptr %20, i32 0, i32 9
  %22 = load ptr, ptr %21, align 8
  %23 = getelementptr inbounds %struct.global_State, ptr %22, i32 0, i32 0
  %24 = getelementptr inbounds %struct.stringtable, ptr %23, i32 0, i32 2
  %25 = load i32, ptr %24, align 4
  %26 = sub nsw i32 %25, 1
  %27 = and i32 %19, %26
  %28 = sext i32 %27 to i64
  %29 = getelementptr inbounds ptr, ptr %18, i64 %28
  %30 = load ptr, ptr %29, align 8
  store ptr %30, ptr %9, align 8
  br label %31

31:                                               ; preds = %76, %3
  %32 = load ptr, ptr %9, align 8
  %33 = icmp ne ptr %32, null
  br i1 %33, label %34, label %80

34:                                               ; preds = %31
  %35 = load ptr, ptr %9, align 8
  %36 = getelementptr inbounds %struct.TString, ptr %35, i32 0, i32 6
  %37 = load i32, ptr %36, align 4
  %38 = zext i32 %37 to i64
  %39 = load i64, ptr %7, align 8
  %40 = icmp eq i64 %38, %39
  br i1 %40, label %41, label %75

41:                                               ; preds = %34
  %42 = load ptr, ptr %6, align 8
  %43 = load ptr, ptr %9, align 8
  %44 = getelementptr inbounds %struct.TString, ptr %43, i32 0, i32 7
  %45 = getelementptr inbounds [1 x i8], ptr %44, i64 0, i64 0
  %46 = load i64, ptr %7, align 8
  %47 = call i32 @memcmp(ptr noundef %42, ptr noundef %45, i64 noundef %46) #7
  %48 = icmp eq i32 %47, 0
  br i1 %48, label %49, label %75

49:                                               ; preds = %41
  %50 = load ptr, ptr %9, align 8
  %51 = getelementptr inbounds %struct.TString, ptr %50, i64 0
  %52 = getelementptr inbounds %struct.GCheader, ptr %51, i32 0, i32 1
  %53 = load i8, ptr %52, align 1
  %54 = zext i8 %53 to i32
  %55 = and i32 %54, 11
  %56 = load ptr, ptr %5, align 8
  %57 = getelementptr inbounds %struct.lua_State, ptr %56, i32 0, i32 9
  %58 = load ptr, ptr %57, align 8
  %59 = getelementptr inbounds %struct.global_State, ptr %58, i32 0, i32 3
  %60 = load i8, ptr %59, align 8
  %61 = zext i8 %60 to i32
  %62 = xor i32 %61, 3
  %63 = and i32 %62, 3
  %64 = icmp eq i32 %55, %63
  br i1 %64, label %65, label %73

65:                                               ; preds = %49
  %66 = load ptr, ptr %9, align 8
  %67 = getelementptr inbounds %struct.TString, ptr %66, i64 0
  %68 = getelementptr inbounds %struct.GCheader, ptr %67, i32 0, i32 1
  %69 = load i8, ptr %68, align 1
  %70 = zext i8 %69 to i32
  %71 = xor i32 %70, 3
  %72 = trunc i32 %71 to i8
  store i8 %72, ptr %68, align 1
  br label %73

73:                                               ; preds = %65, %49
  %74 = load ptr, ptr %9, align 8
  store ptr %74, ptr %4, align 8
  br label %86

75:                                               ; preds = %41, %34
  br label %76

76:                                               ; preds = %75
  %77 = load ptr, ptr %9, align 8
  %78 = getelementptr inbounds %struct.TString, ptr %77, i32 0, i32 4
  %79 = load ptr, ptr %78, align 8
  store ptr %79, ptr %9, align 8
  br label %31, !llvm.loop !12

80:                                               ; preds = %31
  %81 = load ptr, ptr %5, align 8
  %82 = load ptr, ptr %6, align 8
  %83 = load i64, ptr %7, align 8
  %84 = load i32, ptr %8, align 4
  %85 = call noundef ptr @_ZL7newlstrP9lua_StatePKcmj(ptr noundef %81, ptr noundef %82, i64 noundef %83, i32 noundef %84)
  store ptr %85, ptr %4, align 8
  br label %86

86:                                               ; preds = %80, %73
  %87 = load ptr, ptr %4, align 8
  ret ptr %87
}