; Function Attrs: mustprogress uwtable
define hidden noundef ptr @_Z12luaS_newlstrP9lua_StatePKcm(ptr noundef %0, ptr nocapture noundef readonly %1, i64 noundef %2) local_unnamed_addr #2 {
  %4 = trunc i64 %2 to i32
  %5 = icmp ugt i64 %2, 31
  br i1 %5, label %.lr.ph.i, label %.preheader.i

.preheader.i:                                     ; preds = %3
  %.not43.i = icmp eq i64 %2, 0
  br i1 %.not43.i, label %_Z9luaS_hashPKcm.exit, label %.lr.ph46.preheader.i

.lr.ph46.preheader.i:                             ; preds = %.lr.ph.i, %.preheader.i
  %.031.lcssa57.i = phi ptr [ %1, %.preheader.i ], [ %18, %.lr.ph.i ]
  %.032.lcssa56.i = phi i64 [ %2, %.preheader.i ], [ %19, %.lr.ph.i ]
  %.034.lcssa55.i = phi i32 [ %4, %.preheader.i ], [ %17, %.lr.ph.i ]
  br label %.lr.ph46.i

.lr.ph.i:                                         ; preds = %3, %.lr.ph.i
  %.03140.i = phi ptr [ %18, %.lr.ph.i ], [ %1, %3 ]
  %.03239.i = phi i64 [ %19, %.lr.ph.i ], [ %2, %3 ]
  %.03338.i = phi i32 [ %11, %.lr.ph.i ], [ 0, %3 ]
  %.03437.i = phi i32 [ %17, %.lr.ph.i ], [ %4, %3 ]
  %.03536.i = phi i32 [ %14, %.lr.ph.i ], [ 0, %3 ]
  %.sroa.0.0.copyload.i = load i32, ptr %.03140.i, align 1
  %.sroa.2.0..sroa_idx.i = getelementptr inbounds i8, ptr %.03140.i, i64 4
  %.sroa.2.0.copyload.i = load i32, ptr %.sroa.2.0..sroa_idx.i, align 1
  %.sroa.3.0..sroa_idx.i = getelementptr inbounds i8, ptr %.03140.i, i64 8
  %.sroa.3.0.copyload.i = load i32, ptr %.sroa.3.0..sroa_idx.i, align 1
  %6 = add i32 %.sroa.0.0.copyload.i, %.03338.i
  %7 = add i32 %.sroa.2.0.copyload.i, %.03536.i
  %8 = add i32 %.sroa.3.0.copyload.i, %.03437.i
  %9 = xor i32 %8, %6
  %10 = tail call i32 @llvm.fshl.i32(i32 %8, i32 %8, i32 18)
  %11 = sub i32 %9, %10
  %12 = xor i32 %11, %7
  %13 = tail call i32 @llvm.fshl.i32(i32 %11, i32 %11, i32 21)
  %14 = sub i32 %12, %13
  %15 = xor i32 %14, %8
  %16 = tail call i32 @llvm.fshl.i32(i32 %14, i32 %14, i32 7)
  %17 = sub i32 %15, %16
  %18 = getelementptr inbounds i8, ptr %.03140.i, i64 12
  %19 = add i64 %.03239.i, -12
  %20 = icmp ugt i64 %19, 31
  br i1 %20, label %.lr.ph.i, label %.lr.ph46.preheader.i, !llvm.loop !5

.lr.ph46.i:                                       ; preds = %.lr.ph46.i, %.lr.ph46.preheader.i
  %.045.i = phi i64 [ %24, %.lr.ph46.i ], [ %.032.lcssa56.i, %.lr.ph46.preheader.i ]
  %.144.i = phi i32 [ %29, %.lr.ph46.i ], [ %.034.lcssa55.i, %.lr.ph46.preheader.i ]
  %21 = shl i32 %.144.i, 5
  %22 = lshr i32 %.144.i, 2
  %23 = add i32 %21, %22
  %24 = add nsw i64 %.045.i, -1
  %25 = getelementptr inbounds i8, ptr %.031.lcssa57.i, i64 %24
  %26 = load i8, ptr %25, align 1
  %27 = zext i8 %26 to i32
  %28 = add i32 %23, %27
  %29 = xor i32 %28, %.144.i
  %.not.i = icmp eq i64 %24, 0
  br i1 %.not.i, label %_Z9luaS_hashPKcm.exit, label %.lr.ph46.i, !llvm.loop !7

_Z9luaS_hashPKcm.exit:                            ; preds = %.lr.ph46.i, %.preheader.i
  %.1.lcssa.i = phi i32 [ 0, %.preheader.i ], [ %29, %.lr.ph46.i ]
  %30 = getelementptr inbounds i8, ptr %0, i64 24
  %31 = load ptr, ptr %30, align 8
  %32 = load ptr, ptr %31, align 8
  %33 = getelementptr inbounds i8, ptr %31, i64 12
  %34 = load i32, ptr %33, align 4
  %35 = add nsw i32 %34, -1
  %36 = and i32 %35, %.1.lcssa.i
  %37 = sext i32 %36 to i64
  %38 = getelementptr inbounds ptr, ptr %32, i64 %37
  %.026 = load ptr, ptr %38, align 8
  %.not27 = icmp eq ptr %.026, null
  br i1 %.not27, label %._crit_edge, label %.lr.ph

.lr.ph:                                           ; preds = %_Z9luaS_hashPKcm.exit, %57
  %.028 = phi ptr [ %.0, %57 ], [ %.026, %_Z9luaS_hashPKcm.exit ]
  %39 = getelementptr inbounds i8, ptr %.028, i64 20
  %40 = load i32, ptr %39, align 4
  %41 = zext i32 %40 to i64
  %42 = icmp eq i64 %41, %2
  br i1 %42, label %43, label %57

43:                                               ; preds = %.lr.ph
  %44 = getelementptr inbounds i8, ptr %.028, i64 24
  %bcmp = tail call i32 @bcmp(ptr %1, ptr nonnull %44, i64 %2)
  %45 = icmp eq i32 %bcmp, 0
  br i1 %45, label %46, label %57

46:                                               ; preds = %43
  %47 = getelementptr inbounds i8, ptr %.028, i64 1
  %48 = load i8, ptr %47, align 1
  %49 = and i8 %48, 11
  %50 = getelementptr inbounds i8, ptr %31, i64 32
  %51 = load i8, ptr %50, align 8
  %52 = and i8 %51, 3
  %53 = xor i8 %52, %49
  %54 = icmp eq i8 %53, 3
  br i1 %54, label %55, label %_ZL7newlstrP9lua_StatePKcmj.exit

55:                                               ; preds = %46
  %56 = xor i8 %48, 3
  store i8 %56, ptr %47, align 1
  br label %_ZL7newlstrP9lua_StatePKcmj.exit

57:                                               ; preds = %.lr.ph, %43
  %58 = getelementptr inbounds i8, ptr %.028, i64 8
  %.0 = load ptr, ptr %58, align 8
  %.not = icmp eq ptr %.0, null
  br i1 %.not, label %._crit_edge, label %.lr.ph, !llvm.loop !11

._crit_edge:                                      ; preds = %57, %_Z9luaS_hashPKcm.exit
  %59 = icmp ugt i64 %2, 1073741824
  br i1 %59, label %60, label %61

60:                                               ; preds = %._crit_edge
  tail call void @_Z11luaM_toobigP9lua_State(ptr noundef %0) #8
  unreachable

61:                                               ; preds = %._crit_edge
  %62 = add nuw nsw i64 %2, 25
  %63 = getelementptr inbounds i8, ptr %0, i64 4
  %64 = load i8, ptr %63, align 4
  %65 = tail call noundef ptr @_Z12luaM_newgco_P9lua_Statemh(ptr noundef %0, i64 noundef %62, i8 noundef zeroext %64)
  %66 = load ptr, ptr %30, align 8
  %67 = getelementptr inbounds i8, ptr %66, i64 32
  %68 = load i8, ptr %67, align 8
  %69 = and i8 %68, 3
  %70 = getelementptr inbounds i8, ptr %65, i64 1
  store i8 %69, ptr %70, align 1
  store i8 5, ptr %65, align 8
  %71 = load i8, ptr %63, align 4
  %72 = getelementptr inbounds i8, ptr %65, i64 2
  store i8 %71, ptr %72, align 2
  %73 = getelementptr inbounds i8, ptr %65, i64 4
  store i16 -32768, ptr %73, align 4
  %74 = getelementptr inbounds i8, ptr %65, i64 16
  store i32 %.1.lcssa.i, ptr %74, align 8
  %75 = getelementptr inbounds i8, ptr %65, i64 20
  store i32 %4, ptr %75, align 4
  %76 = getelementptr inbounds i8, ptr %65, i64 24
  tail call void @llvm.memcpy.p0.p0.i64(ptr nonnull align 8 %76, ptr readonly align 1 %1, i64 %2, i1 false)
  %77 = getelementptr inbounds [1 x i8], ptr %76, i64 0, i64 %2
  store i8 0, ptr %77, align 1
  %78 = load ptr, ptr %30, align 8
  %79 = getelementptr inbounds i8, ptr %78, i64 12
  %80 = load i32, ptr %79, align 4
  %81 = add nsw i32 %80, -1
  %82 = and i32 %81, %.1.lcssa.i
  %83 = load ptr, ptr %78, align 8
  %84 = zext i32 %82 to i64
  %85 = getelementptr inbounds ptr, ptr %83, i64 %84
  %86 = load ptr, ptr %85, align 8
  %87 = getelementptr inbounds i8, ptr %65, i64 8
  store ptr %86, ptr %87, align 8
  %88 = load ptr, ptr %78, align 8
  %89 = getelementptr inbounds ptr, ptr %88, i64 %84
  store ptr %65, ptr %89, align 8
  %90 = getelementptr inbounds i8, ptr %78, i64 8
  %91 = load i32, ptr %90, align 8
  %92 = add i32 %91, 1
  store i32 %92, ptr %90, align 8
  %93 = load i32, ptr %79, align 4
  %94 = icmp ugt i32 %92, %93
  %95 = icmp slt i32 %93, 1073741824
  %or.cond.i = and i1 %94, %95
  br i1 %or.cond.i, label %96, label %_ZL7newlstrP9lua_StatePKcmj.exit

96:                                               ; preds = %61
  %97 = shl nsw i32 %93, 1
  tail call void @_Z11luaS_resizeP9lua_Statei(ptr noundef nonnull %0, i32 noundef %97)
  br label %_ZL7newlstrP9lua_StatePKcmj.exit

_ZL7newlstrP9lua_StatePKcmj.exit:                 ; preds = %96, %61, %46, %55
  %.020 = phi ptr [ %.028, %55 ], [ %.028, %46 ], [ %65, %61 ], [ %65, %96 ]
  ret ptr %.020
}